target datalayout = "e-m:e-p270:32:32-p271:32:32-p272:64:64-i64:64-i128:128-f80:128-n8:16:32:64-S128"
target triple = "x86_64-pc-linux-gnu"

%struct.sct_ctx_st = type { ptr, ptr, i64, ptr, i64, ptr, i64, ptr, i64, i64, ptr, ptr }

@.str = private unnamed_addr constant [34 x i8] c"../openssl/crypto/ct/ct_sct_ctx.c\00", align 1
@.str.1 = private unnamed_addr constant [9 x i8] c"SHA2-256\00", align 1

; Function Attrs: nounwind uwtable
define internal i32 @ct_public_key_hash(ptr noundef %0, ptr noundef %1, ptr noundef %2, ptr noundef %3) #0 {
  %5 = alloca ptr, align 8
  %6 = alloca ptr, align 8
  %7 = alloca ptr, align 8
  %8 = alloca ptr, align 8
  %9 = alloca i32, align 4
  %10 = alloca ptr, align 8
  %11 = alloca ptr, align 8
  %12 = alloca i32, align 4
  %13 = alloca i32, align 4
  %14 = alloca ptr, align 8
  store ptr %0, ptr %5, align 8, !tbaa !10
  store ptr %1, ptr %6, align 8, !tbaa !34
  store ptr %2, ptr %7, align 8, !tbaa !36
  store ptr %3, ptr %8, align 8, !tbaa !38
  call void @llvm.lifetime.start.p0(i64 4, ptr %9) #3
  store i32 0, ptr %9, align 4, !tbaa !24
  call void @llvm.lifetime.start.p0(i64 8, ptr %10) #3
  store ptr null, ptr %10, align 8, !tbaa !8
  call void @llvm.lifetime.start.p0(i64 8, ptr %11) #3
  store ptr null, ptr %11, align 8, !tbaa !8
  call void @llvm.lifetime.start.p0(i64 4, ptr %12) #3
  call void @llvm.lifetime.start.p0(i64 4, ptr %13) #3
  call void @llvm.lifetime.start.p0(i64 8, ptr %14) #3
  %15 = load ptr, ptr %5, align 8, !tbaa !10
  %16 = getelementptr inbounds nuw %struct.sct_ctx_st, ptr %15, i32 0, i32 10
  %17 = load ptr, ptr %16, align 8, !tbaa !12
  %18 = load ptr, ptr %5, align 8, !tbaa !10
  %19 = getelementptr inbounds nuw %struct.sct_ctx_st, ptr %18, i32 0, i32 11
  %20 = load ptr, ptr %19, align 8, !tbaa !16
  %21 = call ptr @EVP_MD_fetch(ptr noundef %17, ptr noundef @.str.1, ptr noundef %20)
  store ptr %21, ptr %14, align 8, !tbaa !40
  %22 = load ptr, ptr %14, align 8, !tbaa !40
  %23 = icmp eq ptr %22, null
  br i1 %23, label %24, label %25

24:                                               ; preds = %4
  br label %69

25:                                               ; preds = %4
  %26 = load ptr, ptr %7, align 8, !tbaa !36
  %27 = load ptr, ptr %26, align 8, !tbaa !8
  %28 = icmp ne ptr %27, null
  br i1 %28, label %29, label %36

29:                                               ; preds = %25
  %30 = load ptr, ptr %8, align 8, !tbaa !38
  %31 = load i64, ptr %30, align 8, !tbaa !42
  %32 = icmp uge i64 %31, 32
  br i1 %32, label %33, label %36

33:                                               ; preds = %29
  %34 = load ptr, ptr %7, align 8, !tbaa !36
  %35 = load ptr, ptr %34, align 8, !tbaa !8
  store ptr %35, ptr %10, align 8, !tbaa !8
  br label %42

36:                                               ; preds = %29, %25
  %37 = call noalias ptr @CRYPTO_malloc(i64 noundef 32, ptr noundef @.str, i32 noundef 217)
  store ptr %37, ptr %10, align 8, !tbaa !8
  %38 = load ptr, ptr %10, align 8, !tbaa !8
  %39 = icmp eq ptr %38, null
  br i1 %39, label %40, label %41

40:                                               ; preds = %36
  br label %69

41:                                               ; preds = %36
  br label %42

42:                                               ; preds = %41, %33
  %43 = load ptr, ptr %6, align 8, !tbaa !34
  %44 = call i32 @i2d_X509_PUBKEY(ptr noundef %43, ptr noundef %11)
  store i32 %44, ptr %12, align 4, !tbaa !24
  %45 = load i32, ptr %12, align 4, !tbaa !24
  %46 = icmp sle i32 %45, 0
  br i1 %46, label %47, label %48

47:                                               ; preds = %42
  br label %69

48:                                               ; preds = %42
  %49 = load ptr, ptr %11, align 8, !tbaa !8
  %50 = load i32, ptr %12, align 4, !tbaa !24
  %51 = sext i32 %50 to i64
  %52 = load ptr, ptr %10, align 8, !tbaa !8
  %53 = load ptr, ptr %14, align 8, !tbaa !40
  %54 = call i32 @EVP_Digest(ptr noundef %49, i64 noundef %51, ptr noundef %52, ptr noundef %13, ptr noundef %53, ptr noundef null)
  %55 = icmp ne i32 %54, 0
  br i1 %55, label %57, label %56

56:                                               ; preds = %48
  br label %69

57:                                               ; preds = %48
  %58 = load ptr, ptr %10, align 8, !tbaa !8
  %59 = load ptr, ptr %7, align 8, !tbaa !36
  %60 = load ptr, ptr %59, align 8, !tbaa !8
  %61 = icmp ne ptr %58, %60
  br i1 %61, label %62, label %68

62:                                               ; preds = %57
  %63 = load ptr, ptr %7, align 8, !tbaa !36
  %64 = load ptr, ptr %63, align 8, !tbaa !8
  call void @CRYPTO_free(ptr noundef %64, ptr noundef @.str, i32 noundef 231)
  %65 = load ptr, ptr %10, align 8, !tbaa !8
  %66 = load ptr, ptr %7, align 8, !tbaa !36
  store ptr %65, ptr %66, align 8, !tbaa !8
  %67 = load ptr, ptr %8, align 8, !tbaa !38
  store i64 32, ptr %67, align 8, !tbaa !42
  br label %68

68:                                               ; preds = %62, %57
  store ptr null, ptr %10, align 8, !tbaa !8
  store i32 1, ptr %9, align 4, !tbaa !24
  br label %69

69:                                               ; preds = %68, %56, %47, %40, %24
  %70 = load ptr, ptr %14, align 8, !tbaa !40
  call void @EVP_MD_free(ptr noundef %70)
  %71 = load ptr, ptr %10, align 8, !tbaa !8
  call void @CRYPTO_free(ptr noundef %71, ptr noundef @.str, i32 noundef 240)
  %72 = load ptr, ptr %11, align 8, !tbaa !8
  call void @CRYPTO_free(ptr noundef %72, ptr noundef @.str, i32 noundef 241)
  %73 = load i32, ptr %9, align 4, !tbaa !24
  call void @llvm.lifetime.end.p0(i64 8, ptr %14) #3
  call void @llvm.lifetime.end.p0(i64 4, ptr %13) #3
  call void @llvm.lifetime.end.p0(i64 4, ptr %12) #3
  call void @llvm.lifetime.end.p0(i64 8, ptr %11) #3
  call void @llvm.lifetime.end.p0(i64 8, ptr %10) #3
  call void @llvm.lifetime.end.p0(i64 4, ptr %9) #3
  ret i32 %73
}