; Function Attrs: nounwind uwtable
define internal fastcc range(i32 0, 2) i32 @ct_public_key_hash(ptr %.80.val, ptr %.88.val, ptr noundef %0, ptr noundef captures(none) %1, ptr noundef captures(none) %2) unnamed_addr #0 {
  %4 = alloca ptr, align 8
  %5 = alloca i32, align 4
  call void @llvm.lifetime.start.p0(i64 8, ptr nonnull %4) #4
  store ptr null, ptr %4, align 8, !tbaa !18
  call void @llvm.lifetime.start.p0(i64 4, ptr nonnull %5) #4
  %6 = tail call ptr @EVP_MD_fetch(ptr noundef %.80.val, ptr noundef nonnull @.str.1, ptr noundef %.88.val) #4
  %7 = icmp eq ptr %6, null
  br i1 %7, label %26, label %8

8:                                                ; preds = %3
  %9 = load ptr, ptr %1, align 8, !tbaa !18
  %.not = icmp eq ptr %9, null
  br i1 %.not, label %13, label %10

10:                                               ; preds = %8
  %11 = load i64, ptr %2, align 8, !tbaa !21
  %12 = icmp ugt i64 %11, 31
  br i1 %12, label %16, label %13

13:                                               ; preds = %10, %8
  %14 = tail call noalias ptr @CRYPTO_malloc(i64 noundef 32, ptr noundef nonnull @.str, i32 noundef 217) #4
  %15 = icmp eq ptr %14, null
  br i1 %15, label %26, label %16

16:                                               ; preds = %10, %13
  %.1 = phi ptr [ %14, %13 ], [ %9, %10 ]
  %17 = call i32 @i2d_X509_PUBKEY(ptr noundef %0, ptr noundef nonnull %4) #4
  %18 = icmp slt i32 %17, 1
  br i1 %18, label %26, label %19

19:                                               ; preds = %16
  %20 = load ptr, ptr %4, align 8, !tbaa !18
  %21 = zext nneg i32 %17 to i64
  %22 = call i32 @EVP_Digest(ptr noundef %20, i64 noundef %21, ptr noundef nonnull %.1, ptr noundef nonnull %5, ptr noundef nonnull %6, ptr noundef null) #4
  %.not27 = icmp eq i32 %22, 0
  br i1 %.not27, label %26, label %23

23:                                               ; preds = %19
  %24 = load ptr, ptr %1, align 8, !tbaa !18
  %.not28 = icmp eq ptr %.1, %24
  br i1 %.not28, label %26, label %25

25:                                               ; preds = %23
  call void @CRYPTO_free(ptr noundef %24, ptr noundef nonnull @.str, i32 noundef 231) #4
  store ptr %.1, ptr %1, align 8, !tbaa !18
  store i64 32, ptr %2, align 8, !tbaa !21
  br label %26

26:                                               ; preds = %23, %25, %19, %16, %13, %3
  %.020 = phi ptr [ null, %3 ], [ %.1, %16 ], [ %.1, %19 ], [ null, %13 ], [ null, %25 ], [ null, %23 ]
  %.0 = phi i32 [ 0, %3 ], [ 0, %16 ], [ 0, %19 ], [ 0, %13 ], [ 1, %25 ], [ 1, %23 ]
  call void @EVP_MD_free(ptr noundef %6) #4
  call void @CRYPTO_free(ptr noundef %.020, ptr noundef nonnull @.str, i32 noundef 240) #4
  %27 = load ptr, ptr %4, align 8, !tbaa !18
  call void @CRYPTO_free(ptr noundef %27, ptr noundef nonnull @.str, i32 noundef 241) #4
  call void @llvm.lifetime.end.p0(i64 4, ptr nonnull %5) #4
  call void @llvm.lifetime.end.p0(i64 8, ptr nonnull %4) #4
  ret i32 %.0
}